target datalayout = "e-m:e-p270:32:32-p271:32:32-p272:64:64-i64:64-i128:128-f80:128-n8:16:32:64-S128"
target triple = "x86_64-pc-linux-gnu"

%struct.__va_list_tag = type { i32, i32, ptr, ptr }
%struct.StringInfoData = type { ptr, i32, i32, i32 }

@.str.213 = private unnamed_addr constant [6 x i8] c" -c \22\00", align 1
@.str.214 = private unnamed_addr constant [5 x i8] c"\\\22$`\00", align 1

; Function Attrs: nounwind uwtable
define internal void @psql_add_command(ptr noundef %0, ptr noundef %1, ...) #0 {
  %3 = alloca ptr, align 8
  %4 = alloca ptr, align 8
  %5 = alloca %struct.StringInfoData, align 8
  %6 = alloca ptr, align 8
  %7 = alloca [1 x %struct.__va_list_tag], align 16
  %8 = alloca i32, align 4
  %9 = alloca i32, align 4
  store ptr %0, ptr %3, align 8
  store ptr %1, ptr %4, align 8
  call void @llvm.lifetime.start.p0(i64 24, ptr %5) #14
  call void @llvm.lifetime.start.p0(i64 8, ptr %6) #14
  %10 = load ptr, ptr %3, align 8
  call void @appendStringInfoString(ptr noundef %10, ptr noundef @.str.213)
  call void @initStringInfo(ptr noundef %5)
  br label %11

11:                                               ; preds = %24, %2
  call void @llvm.lifetime.start.p0(i64 24, ptr %7) #14
  call void @llvm.lifetime.start.p0(i64 4, ptr %8) #14
  %12 = getelementptr inbounds [1 x %struct.__va_list_tag], ptr %7, i64 0, i64 0
  call void @llvm.va_start.p0(ptr %12)
  %13 = load ptr, ptr %4, align 8
  %14 = getelementptr inbounds [1 x %struct.__va_list_tag], ptr %7, i64 0, i64 0
  %15 = call i32 @appendStringInfoVA(ptr noundef %5, ptr noundef %13, ptr noundef %14)
  store i32 %15, ptr %8, align 4
  %16 = getelementptr inbounds [1 x %struct.__va_list_tag], ptr %7, i64 0, i64 0
  call void @llvm.va_end.p0(ptr %16)
  %17 = load i32, ptr %8, align 4
  %18 = icmp eq i32 %17, 0
  br i1 %18, label %19, label %20

19:                                               ; preds = %11
  store i32 2, ptr %9, align 4
  br label %22

20:                                               ; preds = %11
  %21 = load i32, ptr %8, align 4
  call void @enlargeStringInfo(ptr noundef %5, i32 noundef %21)
  store i32 0, ptr %9, align 4
  br label %22

22:                                               ; preds = %20, %19
  call void @llvm.lifetime.end.p0(i64 4, ptr %8) #14
  call void @llvm.lifetime.end.p0(i64 24, ptr %7) #14
  %23 = load i32, ptr %9, align 4
  switch i32 %23, label %51 [
    i32 0, label %24
    i32 2, label %25
  ]

24:                                               ; preds = %22
  br label %11

25:                                               ; preds = %22
  %26 = getelementptr inbounds nuw %struct.StringInfoData, ptr %5, i32 0, i32 0
  %27 = load ptr, ptr %26, align 8
  store ptr %27, ptr %6, align 8
  br label %28

28:                                               ; preds = %44, %25
  %29 = load ptr, ptr %6, align 8
  %30 = load i8, ptr %29, align 1
  %31 = icmp ne i8 %30, 0
  br i1 %31, label %32, label %47

32:                                               ; preds = %28
  %33 = load ptr, ptr %6, align 8
  %34 = load i8, ptr %33, align 1
  %35 = sext i8 %34 to i32
  %36 = call ptr @strchr(ptr noundef @.str.214, i32 noundef %35) #17
  %37 = icmp ne ptr %36, null
  br i1 %37, label %38, label %40

38:                                               ; preds = %32
  %39 = load ptr, ptr %3, align 8
  call void @appendStringInfoChar(ptr noundef %39, i8 noundef signext 92)
  br label %40

40:                                               ; preds = %38, %32
  %41 = load ptr, ptr %3, align 8
  %42 = load ptr, ptr %6, align 8
  %43 = load i8, ptr %42, align 1
  call void @appendStringInfoChar(ptr noundef %41, i8 noundef signext %43)
  br label %44

44:                                               ; preds = %40
  %45 = load ptr, ptr %6, align 8
  %46 = getelementptr inbounds nuw i8, ptr %45, i32 1
  store ptr %46, ptr %6, align 8
  br label %28, !llvm.loop !35

47:                                               ; preds = %28
  %48 = load ptr, ptr %3, align 8
  call void @appendStringInfoChar(ptr noundef %48, i8 noundef signext 34)
  %49 = getelementptr inbounds nuw %struct.StringInfoData, ptr %5, i32 0, i32 0
  %50 = load ptr, ptr %49, align 8
  call void @pfree(ptr noundef %50)
  call void @llvm.lifetime.end.p0(i64 8, ptr %6) #14
  call void @llvm.lifetime.end.p0(i64 24, ptr %5) #14
  ret void

51:                                               ; preds = %22
  unreachable
}