; Function Attrs: nounwind uwtable
define internal void @psql_add_command(ptr noundef %0, ptr noundef %1, ...) unnamed_addr #0 {
  %3 = alloca %struct.StringInfoData, align 8
  %4 = alloca [1 x %struct.__va_list_tag], align 16
  call void @llvm.lifetime.start.p0(i64 24, ptr nonnull %3) #22
  tail call void @appendStringInfoString(ptr noundef %0, ptr noundef nonnull @.str.213) #22
  call void @initStringInfo(ptr noundef nonnull %3) #22
  call void @llvm.lifetime.start.p0(i64 24, ptr nonnull %4) #22
  call void @llvm.va_start.p0(ptr nonnull %4)
  %5 = call i32 @appendStringInfoVA(ptr noundef nonnull %3, ptr noundef %1, ptr noundef nonnull %4) #22
  call void @llvm.va_end.p0(ptr nonnull %4)
  %6 = icmp eq i32 %5, 0
  br i1 %6, label %._crit_edge, label %.lr.ph

.lr.ph:                                           ; preds = %2, %.lr.ph
  %7 = phi i32 [ %8, %.lr.ph ], [ %5, %2 ]
  call void @enlargeStringInfo(ptr noundef nonnull %3, i32 noundef %7) #22
  call void @llvm.lifetime.end.p0(i64 24, ptr nonnull %4) #22
  call void @llvm.lifetime.start.p0(i64 24, ptr nonnull %4) #22
  call void @llvm.va_start.p0(ptr nonnull %4)
  %8 = call i32 @appendStringInfoVA(ptr noundef nonnull %3, ptr noundef %1, ptr noundef nonnull %4) #22
  call void @llvm.va_end.p0(ptr nonnull %4)
  %9 = icmp eq i32 %8, 0
  br i1 %9, label %._crit_edge, label %.lr.ph

._crit_edge:                                      ; preds = %.lr.ph, %2
  call void @llvm.lifetime.end.p0(i64 24, ptr nonnull %4) #22
  %10 = load ptr, ptr %3, align 8
  %11 = load i8, ptr %10, align 1
  %.not17 = icmp eq i8 %11, 0
  br i1 %.not17, label %._crit_edge21, label %.lr.ph20

.lr.ph20:                                         ; preds = %._crit_edge, %15
  %12 = phi i8 [ %18, %15 ], [ %11, %._crit_edge ]
  %.01118 = phi ptr [ %17, %15 ], [ %10, %._crit_edge ]
  %13 = sext i8 %12 to i32
  %memchr = call ptr @memchr(ptr noundef nonnull dereferenceable(1) @.str.214, i32 %13, i64 5)
  %.not14 = icmp eq ptr %memchr, null
  br i1 %.not14, label %15, label %14

14:                                               ; preds = %.lr.ph20
  call void @appendStringInfoChar(ptr noundef %0, i8 noundef signext 92) #22
  %.pre = load i8, ptr %.01118, align 1
  br label %15

15:                                               ; preds = %14, %.lr.ph20
  %16 = phi i8 [ %.pre, %14 ], [ %12, %.lr.ph20 ]
  call void @appendStringInfoChar(ptr noundef %0, i8 noundef signext %16) #22
  %17 = getelementptr inbounds nuw i8, ptr %.01118, i64 1
  %18 = load i8, ptr %17, align 1
  %.not = icmp eq i8 %18, 0
  br i1 %.not, label %._crit_edge21, label %.lr.ph20, !llvm.loop !36

._crit_edge21:                                    ; preds = %15, %._crit_edge
  call void @appendStringInfoChar(ptr noundef %0, i8 noundef signext 34) #22
  %19 = load ptr, ptr %3, align 8
  call void @pfree(ptr noundef %19) #22
  call void @llvm.lifetime.end.p0(i64 24, ptr nonnull %3) #22
  ret void
}